target datalayout = "e-m:e-p270:32:32-p271:32:32-p272:64:64-i64:64-i128:128-f80:128-n8:16:32:64-S128"
target triple = "x86_64-pc-linux-gnu"

%struct.archive_read = type { %struct.archive, ptr, i32, i64, i64, %struct.archive_read_client, [16 x %struct.archive_read_filter_bidder], ptr, i32, i64, i32, i32, [16 x %struct.archive_format_descriptor], ptr, ptr, ptr, %struct.anon }
%struct.archive = type { i32, i32, ptr, i32, ptr, i32, i32, ptr, %struct.archive_string, ptr, i32, i32, ptr, ptr, i64, i64, i64, i8, i64 }
%struct.archive_string = type { ptr, i64, i64 }
%struct.archive_read_client = type { ptr, ptr, ptr, ptr, ptr, ptr, i32, i32, i64, ptr }
%struct.archive_read_filter_bidder = type { ptr, ptr, ptr }
%struct.archive_format_descriptor = type { ptr, ptr, ptr, ptr, ptr, ptr, ptr, ptr, ptr, ptr, ptr }
%struct.anon = type { ptr, ptr, i32, ptr, ptr }
%struct.cpio = type { i32, ptr, ptr, i64, i64, i64, i64, ptr, ptr, i32, i32 }

; Function Attrs: nounwind uwtable
define internal i32 @archive_read_format_cpio_skip(ptr noundef %0) #0 {
  %2 = alloca i32, align 4
  %3 = alloca ptr, align 8
  %4 = alloca ptr, align 8
  %5 = alloca i64, align 8
  %6 = alloca i32, align 4
  store ptr %0, ptr %3, align 8, !tbaa !9
  call void @llvm.lifetime.start.p0(i64 8, ptr %4) #8
  %7 = load ptr, ptr %3, align 8, !tbaa !9
  %8 = getelementptr inbounds nuw %struct.archive_read, ptr %7, i32 0, i32 13
  %9 = load ptr, ptr %8, align 8, !tbaa !20
  %10 = getelementptr inbounds nuw %struct.archive_format_descriptor, ptr %9, i32 0, i32 0
  %11 = load ptr, ptr %10, align 8, !tbaa !35
  store ptr %11, ptr %4, align 8, !tbaa !13
  call void @llvm.lifetime.start.p0(i64 8, ptr %5) #8
  %12 = load ptr, ptr %4, align 8, !tbaa !13
  %13 = getelementptr inbounds nuw %struct.cpio, ptr %12, i32 0, i32 3
  %14 = load i64, ptr %13, align 8, !tbaa !49
  %15 = load ptr, ptr %4, align 8, !tbaa !13
  %16 = getelementptr inbounds nuw %struct.cpio, ptr %15, i32 0, i32 6
  %17 = load i64, ptr %16, align 8, !tbaa !53
  %18 = add nsw i64 %14, %17
  %19 = load ptr, ptr %4, align 8, !tbaa !13
  %20 = getelementptr inbounds nuw %struct.cpio, ptr %19, i32 0, i32 4
  %21 = load i64, ptr %20, align 8, !tbaa !52
  %22 = add nsw i64 %18, %21
  store i64 %22, ptr %5, align 8, !tbaa !46
  %23 = load i64, ptr %5, align 8, !tbaa !46
  %24 = load ptr, ptr %3, align 8, !tbaa !9
  %25 = load i64, ptr %5, align 8, !tbaa !46
  %26 = call i64 @__archive_read_consume(ptr noundef %24, i64 noundef %25)
  %27 = icmp ne i64 %23, %26
  br i1 %27, label %28, label %29

28:                                               ; preds = %1
  store i32 -30, ptr %2, align 4
  store i32 1, ptr %6, align 4
  br label %36

29:                                               ; preds = %1
  %30 = load ptr, ptr %4, align 8, !tbaa !13
  %31 = getelementptr inbounds nuw %struct.cpio, ptr %30, i32 0, i32 3
  store i64 0, ptr %31, align 8, !tbaa !49
  %32 = load ptr, ptr %4, align 8, !tbaa !13
  %33 = getelementptr inbounds nuw %struct.cpio, ptr %32, i32 0, i32 6
  store i64 0, ptr %33, align 8, !tbaa !53
  %34 = load ptr, ptr %4, align 8, !tbaa !13
  %35 = getelementptr inbounds nuw %struct.cpio, ptr %34, i32 0, i32 4
  store i64 0, ptr %35, align 8, !tbaa !52
  store i32 0, ptr %2, align 4
  store i32 1, ptr %6, align 4
  br label %36

36:                                               ; preds = %29, %28
  call void @llvm.lifetime.end.p0(i64 8, ptr %5) #8
  call void @llvm.lifetime.end.p0(i64 8, ptr %4) #8
  %37 = load i32, ptr %2, align 4
  ret i32 %37
}