; Function Attrs: nounwind uwtable
define internal range(i32 -30, 1) i32 @archive_read_format_cpio_skip(ptr noundef %0) #0 {
  %2 = getelementptr inbounds nuw i8, ptr %0, i64 2072
  %3 = load ptr, ptr %2, align 8, !tbaa !13
  %4 = load ptr, ptr %3, align 8, !tbaa !28
  %5 = getelementptr inbounds nuw i8, ptr %4, i64 24
  %6 = load i64, ptr %5, align 8, !tbaa !39
  %7 = getelementptr inbounds nuw i8, ptr %4, i64 48
  %8 = load i64, ptr %7, align 8, !tbaa !53
  %9 = add nsw i64 %8, %6
  %10 = getelementptr inbounds nuw i8, ptr %4, i64 32
  %11 = load i64, ptr %10, align 8, !tbaa !51
  %12 = add nsw i64 %9, %11
  %13 = tail call i64 @__archive_read_consume(ptr noundef %0, i64 noundef %12) #12
  %.not = icmp eq i64 %12, %13
  br i1 %.not, label %14, label %15

14:                                               ; preds = %1
  store i64 0, ptr %7, align 8, !tbaa !53
  tail call void @llvm.memset.p0.i64(ptr noundef nonnull align 8 dereferenceable(16) %5, i8 0, i64 16, i1 false)
  br label %15

15:                                               ; preds = %1, %14
  %.0 = phi i32 [ 0, %14 ], [ -30, %1 ]
  ret i32 %.0
}